target datalayout = "e-m:e-p270:32:32-p271:32:32-p272:64:64-i64:64-i128:128-f80:128-n8:16:32:64-S128"
target triple = "x86_64-unknown-linux-gnu"

%"class.icu_75::UIterCollationIterator" = type { %"class.icu_75::CollationIterator.base", ptr }
%"class.icu_75::CollationIterator.base" = type <{ %"class.icu_75::UObject", ptr, ptr, %"class.icu_75::CollationIterator::CEBuffer", i32, [4 x i8], ptr, i32, i8 }>
%"class.icu_75::UObject" = type { ptr }
%"class.icu_75::CollationIterator::CEBuffer" = type { i32, %"class.icu_75::MaybeStackArray.0" }
%"class.icu_75::MaybeStackArray.0" = type { ptr, i32, i8, [40 x i64] }
%struct.UCharIterator = type { ptr, i32, i32, i32, i32, i32, ptr, ptr, ptr, ptr, ptr, ptr, ptr, ptr, ptr, ptr }
%"class.icu_75::CollationIterator" = type <{ %"class.icu_75::UObject", ptr, ptr, %"class.icu_75::CollationIterator::CEBuffer", i32, [4 x i8], ptr, i32, i8, [3 x i8] }>
%struct.UTrie2 = type { ptr, ptr, ptr, i32, i32, i16, i16, i32, i32, i32, i32, ptr, i32, i8, i8, i16, ptr }

; Function Attrs: mustprogress uwtable
define noundef i32 @_ZN6icu_7522UIterCollationIterator14handleNextCE32ERiR10UErrorCode(ptr noundef nonnull align 8 dereferenceable(400) %this, ptr noundef nonnull align 4 dereferenceable(4) %c, ptr noundef nonnull align 4 dereferenceable(4) %0) unnamed_addr #1 align 2 {
entry:
  %retval = alloca i32, align 4
  %this.addr = alloca ptr, align 8
  %c.addr = alloca ptr, align 8
  %.addr = alloca ptr, align 8
  store ptr %this, ptr %this.addr, align 8
  store ptr %c, ptr %c.addr, align 8
  store ptr %0, ptr %.addr, align 8
  %this1 = load ptr, ptr %this.addr, align 8
  %iter = getelementptr inbounds %"class.icu_75::UIterCollationIterator", ptr %this1, i32 0, i32 1
  %1 = load ptr, ptr %iter, align 8
  %next = getelementptr inbounds %struct.UCharIterator, ptr %1, i32 0, i32 11
  %2 = load ptr, ptr %next, align 8
  %iter2 = getelementptr inbounds %"class.icu_75::UIterCollationIterator", ptr %this1, i32 0, i32 1
  %3 = load ptr, ptr %iter2, align 8
  %call = call noundef i32 %2(ptr noundef %3)
  %4 = load ptr, ptr %c.addr, align 8
  store i32 %call, ptr %4, align 4
  %5 = load ptr, ptr %c.addr, align 8
  %6 = load i32, ptr %5, align 4
  %cmp = icmp slt i32 %6, 0
  br i1 %cmp, label %if.then, label %if.end

if.then:                                          ; preds = %entry
  store i32 192, ptr %retval, align 4
  br label %return

if.end:                                           ; preds = %entry
  %trie = getelementptr inbounds %"class.icu_75::CollationIterator", ptr %this1, i32 0, i32 1
  %7 = load ptr, ptr %trie, align 8
  %data32 = getelementptr inbounds %struct.UTrie2, ptr %7, i32 0, i32 2
  %8 = load ptr, ptr %data32, align 8
  %trie3 = getelementptr inbounds %"class.icu_75::CollationIterator", ptr %this1, i32 0, i32 1
  %9 = load ptr, ptr %trie3, align 8
  %index = getelementptr inbounds %struct.UTrie2, ptr %9, i32 0, i32 0
  %10 = load ptr, ptr %index, align 8
  %11 = load ptr, ptr %c.addr, align 8
  %12 = load i32, ptr %11, align 4
  %shr = ashr i32 %12, 5
  %add = add nsw i32 0, %shr
  %idxprom = sext i32 %add to i64
  %arrayidx = getelementptr inbounds i16, ptr %10, i64 %idxprom
  %13 = load i16, ptr %arrayidx, align 2
  %conv = zext i16 %13 to i32
  %shl = shl i32 %conv, 2
  %14 = load ptr, ptr %c.addr, align 8
  %15 = load i32, ptr %14, align 4
  %and = and i32 %15, 31
  %add4 = add nsw i32 %shl, %and
  %idxprom5 = sext i32 %add4 to i64
  %arrayidx6 = getelementptr inbounds i32, ptr %8, i64 %idxprom5
  %16 = load i32, ptr %arrayidx6, align 4
  store i32 %16, ptr %retval, align 4
  br label %return

return:                                           ; preds = %if.end, %if.then
  %17 = load i32, ptr %retval, align 4
  ret i32 %17
}