; Function Attrs: mustprogress uwtable
define noundef i32 @_ZN6icu_7522UIterCollationIterator14handleNextCE32ERiR10UErrorCode(ptr nocapture noundef nonnull readonly align 8 dereferenceable(400) %this, ptr nocapture noundef nonnull writeonly align 4 dereferenceable(4) %c, ptr nocapture nonnull readnone align 4 %0) unnamed_addr #1 align 2 {
entry:
  %iter = getelementptr inbounds i8, ptr %this, i64 392
  %1 = load ptr, ptr %iter, align 8
  %next = getelementptr inbounds i8, ptr %1, i64 72
  %2 = load ptr, ptr %next, align 8
  %call = tail call noundef i32 %2(ptr noundef %1)
  store i32 %call, ptr %c, align 4
  %cmp = icmp slt i32 %call, 0
  br i1 %cmp, label %return, label %if.end

if.end:                                           ; preds = %entry
  %trie = getelementptr inbounds i8, ptr %this, i64 8
  %3 = load ptr, ptr %trie, align 8
  %data32 = getelementptr inbounds i8, ptr %3, i64 16
  %4 = load ptr, ptr %data32, align 8
  %5 = load ptr, ptr %3, align 8
  %shr = lshr i32 %call, 5
  %idxprom = zext nneg i32 %shr to i64
  %arrayidx = getelementptr inbounds i16, ptr %5, i64 %idxprom
  %6 = load i16, ptr %arrayidx, align 2
  %conv = zext i16 %6 to i32
  %shl = shl nuw nsw i32 %conv, 2
  %and = and i32 %call, 31
  %add4 = add nuw nsw i32 %shl, %and
  %idxprom5 = zext nneg i32 %add4 to i64
  %arrayidx6 = getelementptr inbounds i32, ptr %4, i64 %idxprom5
  %7 = load i32, ptr %arrayidx6, align 4
  br label %return

return:                                           ; preds = %entry, %if.end
  %retval.0 = phi i32 [ %7, %if.end ], [ 192, %entry ]
  ret i32 %retval.0
}